target datalayout = "e-m:e-p270:32:32-p271:32:32-p272:64:64-i64:64-i128:128-f80:128-n8:16:32:64-S128"
target triple = "x86_64-pc-linux-gnu"

%struct.t_interaction_function = type { ptr, ptr, i32, i32, i32, i32 }
%"class.std::filesystem::__cxx11::path" = type { %"class.std::__cxx11::basic_string", %"struct.std::filesystem::__cxx11::path::_List" }
%"class.std::__cxx11::basic_string" = type { %"struct.std::__cxx11::basic_string<char>::_Alloc_hider", i64, %union.anon }
%"struct.std::__cxx11::basic_string<char>::_Alloc_hider" = type { ptr }
%union.anon = type { i64, [8 x i8] }
%"struct.std::filesystem::__cxx11::path::_List" = type { %"class.std::unique_ptr.60" }
%"class.std::unique_ptr.60" = type { %"struct.std::__uniq_ptr_data.61" }
%"struct.std::__uniq_ptr_data.61" = type { %"class.std::__uniq_ptr_impl.62" }
%"class.std::__uniq_ptr_impl.62" = type { %"class.std::tuple.63" }
%"class.std::tuple.63" = type { %"struct.std::_Tuple_impl.64" }
%"struct.std::_Tuple_impl.64" = type { %"struct.std::_Head_base.67" }
%"struct.std::_Head_base.67" = type { ptr }

@interaction_function = external global [95 x %struct.t_interaction_function], align 16
@.str = private unnamed_addr constant [132 x i8] c"generated/home/dtcxzyw/WorkSpace/Projects/compilers/llvm-opt-benchmark/bench/gromacs/gromacs/src/gromacs/gmxpreprocess/convparm.cpp\00", align 1
@.str.14 = private unnamed_addr constant [53 x i8] c"A non-integer value (%f) was supplied for '%s' in %s\00", align 1
@.str.15 = private unnamed_addr constant [67 x i8] c"Value of '%s' in %s is %d, which is smaller than the minimum of %d\00", align 1

; Function Attrs: inlinehint mustprogress nounwind uwtable
define internal noundef i32 @_ZN3gmxL10roundToIntEf(float noundef %0) #5 {
  %2 = alloca float, align 4
  store float %0, ptr %2, align 4, !tbaa !20
  %3 = load float, ptr %2, align 4, !tbaa !20
  %4 = call float @llvm.rint.f32(float %3)
  %5 = fptosi float %4 to i32
  ret i32 %5
}

; Function Attrs: mustprogress uwtable
define internal noundef i32 @_ZL11round_checkfiiPKc(float noundef %0, i32 noundef %1, i32 noundef %2, ptr noundef %3) #2 personality ptr @__gxx_personality_v0 {
  %5 = alloca float, align 4
  %6 = alloca i32, align 4
  %7 = alloca i32, align 4
  %8 = alloca ptr, align 8
  %9 = alloca i32, align 4
  %10 = alloca %"class.std::filesystem::__cxx11::path", align 8
  %11 = alloca ptr, align 8
  %12 = alloca i32, align 4
  %13 = alloca %"class.std::filesystem::__cxx11::path", align 8
  store float %0, ptr %5, align 4, !tbaa !20
  store i32 %1, ptr %6, align 4, !tbaa !4
  store i32 %2, ptr %7, align 4, !tbaa !4
  store ptr %3, ptr %8, align 8, !tbaa !123
  call void @llvm.lifetime.start.p0(i64 4, ptr %9) #18
  %14 = load float, ptr %5, align 4, !tbaa !20
  %15 = call noundef i32 @_ZN3gmxL10roundToIntEf(float noundef %14)
  store i32 %15, ptr %9, align 4, !tbaa !4
  %16 = load float, ptr %5, align 4, !tbaa !20
  %17 = load i32, ptr %9, align 4, !tbaa !4
  %18 = sitofp i32 %17 to float
  %19 = fsub float %16, %18
  %20 = fpext float %19 to double
  %21 = fcmp ogt double %20, 1.000000e-02
  br i1 %21, label %29, label %22

22:                                               ; preds = %4
  %23 = load float, ptr %5, align 4, !tbaa !20
  %24 = load i32, ptr %9, align 4, !tbaa !4
  %25 = sitofp i32 %24 to float
  %26 = fsub float %23, %25
  %27 = fpext float %26 to double
  %28 = fcmp olt double %27, -1.000000e-02
  br i1 %28, label %29, label %43

29:                                               ; preds = %22, %4
  call void @llvm.lifetime.start.p0(i64 40, ptr %10) #18
  call void @_ZNSt10filesystem7__cxx114pathC2IA132_cS1_EERKT_NS1_6formatE(ptr noundef nonnull align 8 dereferenceable(40) %10, ptr noundef nonnull align 1 dereferenceable(132) @.str, i8 noundef zeroext 2)
  %30 = load float, ptr %5, align 4, !tbaa !20
  %31 = fpext float %30 to double
  %32 = load ptr, ptr %8, align 8, !tbaa !123
  %33 = load i32, ptr %7, align 4, !tbaa !4
  %34 = sext i32 %33 to i64
  %35 = getelementptr inbounds [95 x %struct.t_interaction_function], ptr @interaction_function, i64 0, i64 %34
  %36 = getelementptr inbounds nuw %struct.t_interaction_function, ptr %35, i32 0, i32 1
  %37 = load ptr, ptr %36, align 8, !tbaa !158
  invoke void (i32, ptr, i32, ptr, ...) @_Z9gmx_fataliRKNSt10filesystem7__cxx114pathEiPKcz(i32 noundef 0, ptr noundef nonnull align 8 dereferenceable(40) %10, i32 noundef 74, ptr noundef @.str.14, double noundef %31, ptr noundef %32, ptr noundef %37) #19
          to label %38 unwind label %39

38:                                               ; preds = %29
  unreachable

39:                                               ; preds = %29
  %40 = landingpad { ptr, i32 }
          cleanup
  %41 = extractvalue { ptr, i32 } %40, 0
  store ptr %41, ptr %11, align 8
  %42 = extractvalue { ptr, i32 } %40, 1
  store i32 %42, ptr %12, align 4
  call void @_ZNSt10filesystem7__cxx114pathD2Ev(ptr noundef nonnull align 8 dereferenceable(40) %10) #18
  call void @llvm.lifetime.end.p0(i64 40, ptr %10) #18
  br label %63

43:                                               ; preds = %22
  %44 = load i32, ptr %9, align 4, !tbaa !4
  %45 = load i32, ptr %6, align 4, !tbaa !4
  %46 = icmp slt i32 %44, %45
  br i1 %46, label %47, label %61

47:                                               ; preds = %43
  call void @llvm.lifetime.start.p0(i64 40, ptr %13) #18
  call void @_ZNSt10filesystem7__cxx114pathC2IA132_cS1_EERKT_NS1_6formatE(ptr noundef nonnull align 8 dereferenceable(40) %13, ptr noundef nonnull align 1 dereferenceable(132) @.str, i8 noundef zeroext 2)
  %48 = load ptr, ptr %8, align 8, !tbaa !123
  %49 = load i32, ptr %7, align 4, !tbaa !4
  %50 = sext i32 %49 to i64
  %51 = getelementptr inbounds [95 x %struct.t_interaction_function], ptr @interaction_function, i64 0, i64 %50
  %52 = getelementptr inbounds nuw %struct.t_interaction_function, ptr %51, i32 0, i32 1
  %53 = load ptr, ptr %52, align 8, !tbaa !158
  %54 = load i32, ptr %9, align 4, !tbaa !4
  %55 = load i32, ptr %6, align 4, !tbaa !4
  invoke void (i32, ptr, i32, ptr, ...) @_Z9gmx_fataliRKNSt10filesystem7__cxx114pathEiPKcz(i32 noundef 0, ptr noundef nonnull align 8 dereferenceable(40) %13, i32 noundef 83, ptr noundef @.str.15, ptr noundef %48, ptr noundef %53, i32 noundef %54, i32 noundef %55) #19
          to label %56 unwind label %57

56:                                               ; preds = %47
  unreachable

57:                                               ; preds = %47
  %58 = landingpad { ptr, i32 }
          cleanup
  %59 = extractvalue { ptr, i32 } %58, 0
  store ptr %59, ptr %11, align 8
  %60 = extractvalue { ptr, i32 } %58, 1
  store i32 %60, ptr %12, align 4
  call void @_ZNSt10filesystem7__cxx114pathD2Ev(ptr noundef nonnull align 8 dereferenceable(40) %13) #18
  call void @llvm.lifetime.end.p0(i64 40, ptr %13) #18
  br label %63

61:                                               ; preds = %43
  %62 = load i32, ptr %9, align 4, !tbaa !4
  call void @llvm.lifetime.end.p0(i64 4, ptr %9) #18
  ret i32 %62

63:                                               ; preds = %57, %39
  call void @llvm.lifetime.end.p0(i64 4, ptr %9) #18
  br label %64

64:                                               ; preds = %63
  %65 = load ptr, ptr %11, align 8
  %66 = load i32, ptr %12, align 4
  %67 = insertvalue { ptr, i32 } poison, ptr %65, 0
  %68 = insertvalue { ptr, i32 } %67, i32 %66, 1
  resume { ptr, i32 } %68
}