; Function Attrs: mustprogress uwtable
define internal fastcc noundef range(i32 -99, -2147483648) i32 @_ZL11round_checkfiiPKc(float noundef %0, i32 noundef range(i32 -99, 2) %1, i32 noundef %2, ptr noundef %3) unnamed_addr #2 personality ptr @__gxx_personality_v0 {
  %5 = alloca %"class.std::filesystem::__cxx11::path", align 8
  %6 = alloca %"class.std::filesystem::__cxx11::path", align 8
  %7 = tail call float @llvm.rint.f32(float %0)
  %8 = fptosi float %7 to i32
  %9 = sitofp i32 %8 to float
  %10 = fsub float %0, %9
  %11 = tail call float @llvm.fabs.f32(float %10)
  %12 = fpext float %11 to double
  %or.cond = fcmp ogt double %12, 1.000000e-02
  br i1 %or.cond, label %13, label %21

13:                                               ; preds = %4
  call void @llvm.lifetime.start.p0(i64 40, ptr nonnull %5) #19
  call void @_ZNSt10filesystem7__cxx114pathC2IA132_cS1_EERKT_NS1_6formatE(ptr noundef nonnull align 8 dereferenceable(40) %5, ptr noundef nonnull align 1 dereferenceable(132) @.str, i8 noundef zeroext 2)
  %14 = fpext float %0 to double
  %15 = sext i32 %2 to i64
  %16 = getelementptr inbounds [95 x %struct.t_interaction_function], ptr @interaction_function, i64 0, i64 %15, i32 1
  %17 = load ptr, ptr %16, align 8, !tbaa !107
  invoke void (i32, ptr, i32, ptr, ...) @_Z9gmx_fataliRKNSt10filesystem7__cxx114pathEiPKcz(i32 noundef 0, ptr noundef nonnull align 8 dereferenceable(40) %5, i32 noundef 74, ptr noundef nonnull @.str.14, double noundef %14, ptr noundef %3, ptr noundef %17) #20
          to label %18 unwind label %19

18:                                               ; preds = %13
  unreachable

19:                                               ; preds = %13
  %20 = landingpad { ptr, i32 }
          cleanup
  call void @_ZNSt10filesystem7__cxx114pathD2Ev(ptr noundef nonnull align 8 dereferenceable(40) %5) #19
  call void @llvm.lifetime.end.p0(i64 40, ptr nonnull %5) #19
  br label %31

21:                                               ; preds = %4
  %22 = icmp sgt i32 %1, %8
  br i1 %22, label %23, label %30

23:                                               ; preds = %21
  call void @llvm.lifetime.start.p0(i64 40, ptr nonnull %6) #19
  call void @_ZNSt10filesystem7__cxx114pathC2IA132_cS1_EERKT_NS1_6formatE(ptr noundef nonnull align 8 dereferenceable(40) %6, ptr noundef nonnull align 1 dereferenceable(132) @.str, i8 noundef zeroext 2)
  %24 = sext i32 %2 to i64
  %25 = getelementptr inbounds [95 x %struct.t_interaction_function], ptr @interaction_function, i64 0, i64 %24, i32 1
  %26 = load ptr, ptr %25, align 8, !tbaa !107
  invoke void (i32, ptr, i32, ptr, ...) @_Z9gmx_fataliRKNSt10filesystem7__cxx114pathEiPKcz(i32 noundef 0, ptr noundef nonnull align 8 dereferenceable(40) %6, i32 noundef 83, ptr noundef nonnull @.str.15, ptr noundef %3, ptr noundef %26, i32 noundef %8, i32 noundef %1) #20
          to label %27 unwind label %28

27:                                               ; preds = %23
  unreachable

28:                                               ; preds = %23
  %29 = landingpad { ptr, i32 }
          cleanup
  call void @_ZNSt10filesystem7__cxx114pathD2Ev(ptr noundef nonnull align 8 dereferenceable(40) %6) #19
  call void @llvm.lifetime.end.p0(i64 40, ptr nonnull %6) #19
  br label %31

30:                                               ; preds = %21
  ret i32 %8

31:                                               ; preds = %28, %19
  %.pn = phi { ptr, i32 } [ %20, %19 ], [ %29, %28 ]
  resume { ptr, i32 } %.pn
}